; Function Attrs: cold nounwind optsize uwtable
define internal i32 @decode_init(ptr noundef initializes((136, 140)) %0) #0 {
  %2 = getelementptr inbounds nuw i8, ptr %0, i64 32
  %3 = load ptr, ptr %2, align 8, !tbaa !4
  %4 = getelementptr inbounds nuw i8, ptr %0, i64 136
  store i32 4, ptr %4, align 8, !tbaa !27
  %5 = getelementptr inbounds nuw i8, ptr %3, i64 1472
  tail call void @ff_llviddsp_init(ptr noundef nonnull %5) #7
  %6 = getelementptr inbounds nuw i8, ptr %3, i64 1352
  %7 = tail call i32 @ff_inflate_init(ptr noundef nonnull %6, ptr noundef %0) #7
  ret i32 %7
}